target datalayout = "e-m:e-p270:32:32-p271:32:32-p272:64:64-i64:64-i128:128-f80:128-n8:16:32:64-S128"
target triple = "x86_64-pc-linux-gnu"

%"class.pxrInternal_v0_24__pxrReserved__::Vt_ArrayBase" = type { %"struct.pxrInternal_v0_24__pxrReserved__::Vt_ShapeData", ptr }
%"struct.pxrInternal_v0_24__pxrReserved__::Vt_ShapeData" = type { i64, [3 x i32] }
%"class.pxrInternal_v0_24__pxrReserved__::VtArray.134" = type { %"class.pxrInternal_v0_24__pxrReserved__::Vt_ArrayBase", ptr }
%"class.pxrInternal_v0_24__pxrReserved__::GfVec2d" = type { [2 x double] }

; Function Attrs: mustprogress uwtable
define internal void @_ZN32pxrInternal_v0_24__pxrReserved__12_GLOBAL__N_117_AppendCollectionINS_7VtArrayINS_7GfVec2dEEEEEvRKNS_8TfRefPtrINS_8SdfLayerEEES9_RKNS_7SdfPathERKNS_7TfTokenESF_(ptr noundef nonnull align 8 dereferenceable(8) %0, ptr noundef nonnull align 8 dereferenceable(8) %1, ptr noundef nonnull align 4 dereferenceable(8) %2, ptr noundef nonnull align 8 dereferenceable(8) %3, ptr noundef nonnull align 8 dereferenceable(8) %4) #0 personality ptr @__gxx_personality_v0 {
  %6 = alloca ptr, align 8
  %7 = alloca ptr, align 8
  %8 = alloca ptr, align 8
  %9 = alloca ptr, align 8
  %10 = alloca ptr, align 8
  %11 = alloca %"class.pxrInternal_v0_24__pxrReserved__::VtArray.134", align 8
  %12 = alloca %"class.pxrInternal_v0_24__pxrReserved__::VtArray.134", align 8
  %13 = alloca ptr, align 8
  %14 = alloca i32, align 4
  %15 = alloca %"class.pxrInternal_v0_24__pxrReserved__::VtArray.134", align 8
  %16 = alloca ptr, align 8
  %17 = alloca ptr, align 8
  %18 = alloca ptr, align 8
  %19 = alloca ptr, align 8
  %20 = alloca ptr, align 8
  %21 = alloca ptr, align 8
  %22 = alloca ptr, align 8
  %23 = alloca ptr, align 8
  store ptr %0, ptr %6, align 8
  store ptr %1, ptr %7, align 8
  store ptr %2, ptr %8, align 8
  store ptr %3, ptr %9, align 8
  store ptr %4, ptr %10, align 8
  %24 = load ptr, ptr %6, align 8
  %25 = load ptr, ptr %8, align 8
  %26 = load ptr, ptr %9, align 8
  %27 = load ptr, ptr %10, align 8
  call void @_ZN32pxrInternal_v0_24__pxrReserved__12_GLOBAL__N_116_GetUnboxedValueINS_7VtArrayINS_7GfVec2dEEEEET_RKNS_8TfRefPtrINS_8SdfLayerEEERKNS_7SdfPathERKNS_7TfTokenESG_(ptr dead_on_unwind writable sret(%"class.pxrInternal_v0_24__pxrReserved__::VtArray.134") align 8 %11, ptr noundef nonnull align 8 dereferenceable(8) %24, ptr noundef nonnull align 4 dereferenceable(8) %25, ptr noundef nonnull align 8 dereferenceable(8) %26, ptr noundef nonnull align 8 dereferenceable(8) %27)
  %28 = load ptr, ptr %7, align 8
  %29 = load ptr, ptr %8, align 8
  %30 = load ptr, ptr %9, align 8
  %31 = load ptr, ptr %10, align 8
  invoke void @_ZN32pxrInternal_v0_24__pxrReserved__12_GLOBAL__N_116_GetUnboxedValueINS_7VtArrayINS_7GfVec2dEEEEET_RKNS_8TfRefPtrINS_8SdfLayerEEERKNS_7SdfPathERKNS_7TfTokenESG_(ptr dead_on_unwind writable sret(%"class.pxrInternal_v0_24__pxrReserved__::VtArray.134") align 8 %12, ptr noundef nonnull align 8 dereferenceable(8) %28, ptr noundef nonnull align 4 dereferenceable(8) %29, ptr noundef nonnull align 8 dereferenceable(8) %30, ptr noundef nonnull align 8 dereferenceable(8) %31)
          to label %32 unwind label %57

32:                                               ; preds = %5
  invoke void @_ZN32pxrInternal_v0_24__pxrReserved__7VtArrayINS_7GfVec2dEEC1Ev(ptr noundef nonnull align 8 dereferenceable(40) %15)
          to label %33 unwind label %61

33:                                               ; preds = %32
  %34 = invoke noundef i64 @_ZNK32pxrInternal_v0_24__pxrReserved__7VtArrayINS_7GfVec2dEE4sizeEv(ptr noundef nonnull align 8 dereferenceable(40) %11)
          to label %35 unwind label %65

35:                                               ; preds = %33
  %36 = invoke noundef i64 @_ZNK32pxrInternal_v0_24__pxrReserved__7VtArrayINS_7GfVec2dEE4sizeEv(ptr noundef nonnull align 8 dereferenceable(40) %12)
          to label %37 unwind label %65

37:                                               ; preds = %35
  %38 = add i64 %34, %36
  invoke void @_ZN32pxrInternal_v0_24__pxrReserved__7VtArrayINS_7GfVec2dEE7reserveEm(ptr noundef nonnull align 8 dereferenceable(40) %15, i64 noundef %38)
          to label %39 unwind label %65

39:                                               ; preds = %37
  store ptr %11, ptr %16, align 8
  %40 = load ptr, ptr %16, align 8
  %41 = invoke noundef ptr @_ZNK32pxrInternal_v0_24__pxrReserved__7VtArrayINS_7GfVec2dEE5beginEv(ptr noundef nonnull align 8 dereferenceable(40) %40)
          to label %42 unwind label %65

42:                                               ; preds = %39
  store ptr %41, ptr %17, align 8
  %43 = load ptr, ptr %16, align 8
  %44 = invoke noundef ptr @_ZNK32pxrInternal_v0_24__pxrReserved__7VtArrayINS_7GfVec2dEE3endEv(ptr noundef nonnull align 8 dereferenceable(40) %43)
          to label %45 unwind label %65

45:                                               ; preds = %42
  store ptr %44, ptr %18, align 8
  br label %46

46:                                               ; preds = %54, %45
  %47 = load ptr, ptr %17, align 8
  %48 = load ptr, ptr %18, align 8
  %49 = icmp ne ptr %47, %48
  br i1 %49, label %50, label %69

50:                                               ; preds = %46
  %51 = load ptr, ptr %17, align 8
  store ptr %51, ptr %19, align 8
  %52 = load ptr, ptr %19, align 8
  invoke void @_ZN32pxrInternal_v0_24__pxrReserved__7VtArrayINS_7GfVec2dEE9push_backERKS1_(ptr noundef nonnull align 8 dereferenceable(40) %15, ptr noundef nonnull align 8 dereferenceable(16) %52)
          to label %53 unwind label %65

53:                                               ; preds = %50
  br label %54

54:                                               ; preds = %53
  %55 = load ptr, ptr %17, align 8
  %56 = getelementptr inbounds %"class.pxrInternal_v0_24__pxrReserved__::GfVec2d", ptr %55, i32 1
  store ptr %56, ptr %17, align 8
  br label %46

57:                                               ; preds = %5
  %58 = landingpad { ptr, i32 }
          cleanup
  %59 = extractvalue { ptr, i32 } %58, 0
  store ptr %59, ptr %13, align 8
  %60 = extractvalue { ptr, i32 } %58, 1
  store i32 %60, ptr %14, align 4
  br label %94

61:                                               ; preds = %32
  %62 = landingpad { ptr, i32 }
          cleanup
  %63 = extractvalue { ptr, i32 } %62, 0
  store ptr %63, ptr %13, align 8
  %64 = extractvalue { ptr, i32 } %62, 1
  store i32 %64, ptr %14, align 4
  br label %93

65:                                               ; preds = %87, %80, %72, %69, %50, %42, %39, %37, %35, %33
  %66 = landingpad { ptr, i32 }
          cleanup
  %67 = extractvalue { ptr, i32 } %66, 0
  store ptr %67, ptr %13, align 8
  %68 = extractvalue { ptr, i32 } %66, 1
  store i32 %68, ptr %14, align 4
  call void @_ZN32pxrInternal_v0_24__pxrReserved__7VtArrayINS_7GfVec2dEED1Ev(ptr noundef nonnull align 8 dereferenceable(40) %15) #13
  br label %93

69:                                               ; preds = %46
  store ptr %12, ptr %20, align 8
  %70 = load ptr, ptr %20, align 8
  %71 = invoke noundef ptr @_ZNK32pxrInternal_v0_24__pxrReserved__7VtArrayINS_7GfVec2dEE5beginEv(ptr noundef nonnull align 8 dereferenceable(40) %70)
          to label %72 unwind label %65

72:                                               ; preds = %69
  store ptr %71, ptr %21, align 8
  %73 = load ptr, ptr %20, align 8
  %74 = invoke noundef ptr @_ZNK32pxrInternal_v0_24__pxrReserved__7VtArrayINS_7GfVec2dEE3endEv(ptr noundef nonnull align 8 dereferenceable(40) %73)
          to label %75 unwind label %65

75:                                               ; preds = %72
  store ptr %74, ptr %22, align 8
  br label %76

76:                                               ; preds = %84, %75
  %77 = load ptr, ptr %21, align 8
  %78 = load ptr, ptr %22, align 8
  %79 = icmp ne ptr %77, %78
  br i1 %79, label %80, label %87

80:                                               ; preds = %76
  %81 = load ptr, ptr %21, align 8
  store ptr %81, ptr %23, align 8
  %82 = load ptr, ptr %23, align 8
  invoke void @_ZN32pxrInternal_v0_24__pxrReserved__7VtArrayINS_7GfVec2dEE9push_backERKS1_(ptr noundef nonnull align 8 dereferenceable(40) %15, ptr noundef nonnull align 8 dereferenceable(16) %82)
          to label %83 unwind label %65

83:                                               ; preds = %80
  br label %84

84:                                               ; preds = %83
  %85 = load ptr, ptr %21, align 8
  %86 = getelementptr inbounds %"class.pxrInternal_v0_24__pxrReserved__::GfVec2d", ptr %85, i32 1
  store ptr %86, ptr %21, align 8
  br label %76

87:                                               ; preds = %76
  %88 = load ptr, ptr %6, align 8
  %89 = load ptr, ptr %8, align 8
  %90 = load ptr, ptr %9, align 8
  %91 = load ptr, ptr %10, align 8
  invoke void @_ZN32pxrInternal_v0_24__pxrReserved__12_GLOBAL__N_19_SetValueINS_7VtArrayINS_7GfVec2dEEEEEvRKNS_8TfRefPtrINS_8SdfLayerEEERKNS_7SdfPathERKNS_7TfTokenERKT_SF_(ptr noundef nonnull align 8 dereferenceable(8) %88, ptr noundef nonnull align 4 dereferenceable(8) %89, ptr noundef nonnull align 8 dereferenceable(8) %90, ptr noundef nonnull align 8 dereferenceable(40) %15, ptr noundef nonnull align 8 dereferenceable(8) %91)
          to label %92 unwind label %65

92:                                               ; preds = %87
  call void @_ZN32pxrInternal_v0_24__pxrReserved__7VtArrayINS_7GfVec2dEED1Ev(ptr noundef nonnull align 8 dereferenceable(40) %15) #13
  call void @_ZN32pxrInternal_v0_24__pxrReserved__7VtArrayINS_7GfVec2dEED1Ev(ptr noundef nonnull align 8 dereferenceable(40) %12) #13
  call void @_ZN32pxrInternal_v0_24__pxrReserved__7VtArrayINS_7GfVec2dEED1Ev(ptr noundef nonnull align 8 dereferenceable(40) %11) #13
  ret void

93:                                               ; preds = %65, %61
  call void @_ZN32pxrInternal_v0_24__pxrReserved__7VtArrayINS_7GfVec2dEED1Ev(ptr noundef nonnull align 8 dereferenceable(40) %12) #13
  br label %94

94:                                               ; preds = %93, %57
  call void @_ZN32pxrInternal_v0_24__pxrReserved__7VtArrayINS_7GfVec2dEED1Ev(ptr noundef nonnull align 8 dereferenceable(40) %11) #13
  br label %95

95:                                               ; preds = %94
  %96 = load ptr, ptr %13, align 8
  %97 = load i32, ptr %14, align 4
  %98 = insertvalue { ptr, i32 } poison, ptr %96, 0
  %99 = insertvalue { ptr, i32 } %98, i32 %97, 1
  resume { ptr, i32 } %99
}