; Function Attrs: mustprogress uwtable
define internal fastcc void @_ZN32pxrInternal_v0_24__pxrReserved__12_GLOBAL__N_117_AppendCollectionINS_7VtArrayINS_7GfVec2dEEEEEvRKNS_8TfRefPtrINS_8SdfLayerEEES9_RKNS_7SdfPathERKNS_7TfTokenESF_(ptr nocapture noundef nonnull readonly align 8 dereferenceable(8) %0, ptr nocapture noundef nonnull readonly align 8 dereferenceable(8) %1, ptr noundef nonnull align 4 dereferenceable(8) %2, ptr nocapture noundef nonnull readonly align 8 dereferenceable(8) %3, ptr nocapture noundef nonnull readonly align 8 dereferenceable(8) %4) unnamed_addr #0 personality ptr @__gxx_personality_v0 {
  %6 = alloca %"class.pxrInternal_v0_24__pxrReserved__::VtArray.134", align 8
  %7 = alloca %"class.pxrInternal_v0_24__pxrReserved__::VtArray.134", align 8
  %8 = alloca %"class.pxrInternal_v0_24__pxrReserved__::VtArray.134", align 8
  %.val34 = load ptr, ptr %0, align 8
  call fastcc void @_ZN32pxrInternal_v0_24__pxrReserved__12_GLOBAL__N_116_GetUnboxedValueINS_7VtArrayINS_7GfVec2dEEEEET_RKNS_8TfRefPtrINS_8SdfLayerEEERKNS_7SdfPathERKNS_7TfTokenESG_(ptr dead_on_unwind noalias nonnull writable align 8 %6, ptr %.val34, ptr noundef nonnull align 4 dereferenceable(8) %2, ptr noundef nonnull align 8 dereferenceable(8) %3, ptr noundef nonnull align 8 dereferenceable(8) %4)
  %.val = load ptr, ptr %1, align 8
  invoke fastcc void @_ZN32pxrInternal_v0_24__pxrReserved__12_GLOBAL__N_116_GetUnboxedValueINS_7VtArrayINS_7GfVec2dEEEEET_RKNS_8TfRefPtrINS_8SdfLayerEEERKNS_7SdfPathERKNS_7TfTokenESG_(ptr dead_on_unwind noalias nonnull writable align 8 %7, ptr %.val, ptr noundef nonnull align 4 dereferenceable(8) %2, ptr noundef nonnull align 8 dereferenceable(8) %3, ptr noundef nonnull align 8 dereferenceable(8) %4)
          to label %9 unwind label %22

9:                                                ; preds = %5
  invoke void @_ZN32pxrInternal_v0_24__pxrReserved__7VtArrayINS_7GfVec2dEEC1Ev(ptr noundef nonnull align 8 dereferenceable(40) %8)
          to label %10 unwind label %24

10:                                               ; preds = %9
  %11 = invoke noundef i64 @_ZNK32pxrInternal_v0_24__pxrReserved__7VtArrayINS_7GfVec2dEE4sizeEv(ptr noundef nonnull align 8 dereferenceable(40) %6)
          to label %12 unwind label %.loopexit.split-lp.loopexit.split-lp

12:                                               ; preds = %10
  %13 = invoke noundef i64 @_ZNK32pxrInternal_v0_24__pxrReserved__7VtArrayINS_7GfVec2dEE4sizeEv(ptr noundef nonnull align 8 dereferenceable(40) %7)
          to label %14 unwind label %.loopexit.split-lp.loopexit.split-lp

14:                                               ; preds = %12
  %15 = add i64 %13, %11
  invoke void @_ZN32pxrInternal_v0_24__pxrReserved__7VtArrayINS_7GfVec2dEE7reserveEm(ptr noundef nonnull align 8 dereferenceable(40) %8, i64 noundef %15)
          to label %16 unwind label %.loopexit.split-lp.loopexit.split-lp

16:                                               ; preds = %14
  %17 = invoke noundef ptr @_ZNK32pxrInternal_v0_24__pxrReserved__7VtArrayINS_7GfVec2dEE5beginEv(ptr noundef nonnull align 8 dereferenceable(40) %6)
          to label %18 unwind label %.loopexit.split-lp.loopexit.split-lp

18:                                               ; preds = %16
  %19 = invoke noundef ptr @_ZNK32pxrInternal_v0_24__pxrReserved__7VtArrayINS_7GfVec2dEE3endEv(ptr noundef nonnull align 8 dereferenceable(40) %6)
          to label %.preheader36 unwind label %.loopexit.split-lp.loopexit.split-lp

.preheader36:                                     ; preds = %18
  %.not40 = icmp eq ptr %17, %19
  br i1 %.not40, label %._crit_edge, label %.lr.ph

.lr.ph:                                           ; preds = %.preheader36, %20
  %.03041 = phi ptr [ %21, %20 ], [ %17, %.preheader36 ]
  invoke void @_ZN32pxrInternal_v0_24__pxrReserved__7VtArrayINS_7GfVec2dEE9push_backERKS1_(ptr noundef nonnull align 8 dereferenceable(40) %8, ptr noundef nonnull align 8 dereferenceable(16) %.03041)
          to label %20 unwind label %.loopexit.split-lp.loopexit

20:                                               ; preds = %.lr.ph
  %21 = getelementptr inbounds i8, ptr %.03041, i64 16
  %.not = icmp eq ptr %21, %19
  br i1 %.not, label %._crit_edge, label %.lr.ph

22:                                               ; preds = %5
  %23 = landingpad { ptr, i32 }
          cleanup
  br label %33

24:                                               ; preds = %9
  %25 = landingpad { ptr, i32 }
          cleanup
  br label %32

.loopexit:                                        ; preds = %.lr.ph44
  %lpad.loopexit = landingpad { ptr, i32 }
          cleanup
  br label %.loopexit.split-lp

.loopexit.split-lp.loopexit:                      ; preds = %.lr.ph
  %lpad.loopexit37 = landingpad { ptr, i32 }
          cleanup
  br label %.loopexit.split-lp

.loopexit.split-lp.loopexit.split-lp:             ; preds = %._crit_edge45, %27, %._crit_edge, %18, %16, %14, %12, %10
  %lpad.loopexit.split-lp38 = landingpad { ptr, i32 }
          cleanup
  br label %.loopexit.split-lp

.loopexit.split-lp:                               ; preds = %.loopexit.split-lp.loopexit, %.loopexit.split-lp.loopexit.split-lp, %.loopexit
  %lpad.phi = phi { ptr, i32 } [ %lpad.loopexit, %.loopexit ], [ %lpad.loopexit37, %.loopexit.split-lp.loopexit ], [ %lpad.loopexit.split-lp38, %.loopexit.split-lp.loopexit.split-lp ]
  call void @_ZN32pxrInternal_v0_24__pxrReserved__7VtArrayINS_7GfVec2dEED1Ev(ptr noundef nonnull align 8 dereferenceable(40) %8) #24
  br label %32

._crit_edge:                                      ; preds = %20, %.preheader36
  %26 = invoke noundef ptr @_ZNK32pxrInternal_v0_24__pxrReserved__7VtArrayINS_7GfVec2dEE5beginEv(ptr noundef nonnull align 8 dereferenceable(40) %7)
          to label %27 unwind label %.loopexit.split-lp.loopexit.split-lp

27:                                               ; preds = %._crit_edge
  %28 = invoke noundef ptr @_ZNK32pxrInternal_v0_24__pxrReserved__7VtArrayINS_7GfVec2dEE3endEv(ptr noundef nonnull align 8 dereferenceable(40) %7)
          to label %.preheader unwind label %.loopexit.split-lp.loopexit.split-lp

.preheader:                                       ; preds = %27
  %.not3142 = icmp eq ptr %26, %28
  br i1 %.not3142, label %._crit_edge45, label %.lr.ph44

.lr.ph44:                                         ; preds = %.preheader, %29
  %.02943 = phi ptr [ %30, %29 ], [ %26, %.preheader ]
  invoke void @_ZN32pxrInternal_v0_24__pxrReserved__7VtArrayINS_7GfVec2dEE9push_backERKS1_(ptr noundef nonnull align 8 dereferenceable(40) %8, ptr noundef nonnull align 8 dereferenceable(16) %.02943)
          to label %29 unwind label %.loopexit

29:                                               ; preds = %.lr.ph44
  %30 = getelementptr inbounds i8, ptr %.02943, i64 16
  %.not31 = icmp eq ptr %30, %28
  br i1 %.not31, label %._crit_edge45, label %.lr.ph44

._crit_edge45:                                    ; preds = %29, %.preheader
  %.val35 = load ptr, ptr %0, align 8
  invoke fastcc void @_ZN32pxrInternal_v0_24__pxrReserved__12_GLOBAL__N_19_SetValueINS_7VtArrayINS_7GfVec2dEEEEEvRKNS_8TfRefPtrINS_8SdfLayerEEERKNS_7SdfPathERKNS_7TfTokenERKT_SF_(ptr %.val35, ptr noundef nonnull align 4 dereferenceable(8) %2, ptr noundef nonnull align 8 dereferenceable(8) %3, ptr noundef nonnull align 8 dereferenceable(40) %8, ptr noundef nonnull align 8 dereferenceable(8) %4)
          to label %31 unwind label %.loopexit.split-lp.loopexit.split-lp

31:                                               ; preds = %._crit_edge45
  call void @_ZN32pxrInternal_v0_24__pxrReserved__7VtArrayINS_7GfVec2dEED1Ev(ptr noundef nonnull align 8 dereferenceable(40) %8) #24
  call void @_ZN32pxrInternal_v0_24__pxrReserved__7VtArrayINS_7GfVec2dEED1Ev(ptr noundef nonnull align 8 dereferenceable(40) %7) #24
  call void @_ZN32pxrInternal_v0_24__pxrReserved__7VtArrayINS_7GfVec2dEED1Ev(ptr noundef nonnull align 8 dereferenceable(40) %6) #24
  ret void

32:                                               ; preds = %.loopexit.split-lp, %24
  %.pn = phi { ptr, i32 } [ %lpad.phi, %.loopexit.split-lp ], [ %25, %24 ]
  call void @_ZN32pxrInternal_v0_24__pxrReserved__7VtArrayINS_7GfVec2dEED1Ev(ptr noundef nonnull align 8 dereferenceable(40) %7) #24
  br label %33

33:                                               ; preds = %32, %22
  %.pn.pn = phi { ptr, i32 } [ %.pn, %32 ], [ %23, %22 ]
  call void @_ZN32pxrInternal_v0_24__pxrReserved__7VtArrayINS_7GfVec2dEED1Ev(ptr noundef nonnull align 8 dereferenceable(40) %6) #24
  resume { ptr, i32 } %.pn.pn
}